target datalayout = "e-m:e-p270:32:32-p271:32:32-p272:64:64-i64:64-i128:128-f80:128-n8:16:32:64-S128"
target triple = "x86_64-pc-linux-gnu"

; Function Attrs: nounwind uwtable
define internal ptr @SDL_GetBT2020ConversionMatrix(i32 noundef %0) #0 {
  %2 = alloca ptr, align 8
  %3 = alloca i32, align 4
  store i32 %0, ptr %3, align 4
  %4 = load i32, ptr %3, align 4
  %5 = lshr i32 %4, 24
  %6 = and i32 %5, 15
  switch i32 %6, label %9 [
    i32 1, label %7
    i32 0, label %7
    i32 2, label %8
  ]

7:                                                ; preds = %1, %1
  store ptr @mat_BT2020_Limited_10bit, ptr %2, align 8
  br label %11

8:                                                ; preds = %1
  store ptr @mat_BT2020_Full_10bit, ptr %2, align 8
  br label %11

9:                                                ; preds = %1
  br label %10

10:                                               ; preds = %9
  store ptr null, ptr %2, align 8
  br label %11

11:                                               ; preds = %10, %8, %7
  %12 = load ptr, ptr %2, align 8
  ret ptr %12
}

; Function Attrs: nounwind uwtable
define internal ptr @SDL_GetBT709ConversionMatrix(i32 noundef %0) #0 {
  %2 = alloca ptr, align 8
  %3 = alloca i32, align 4
  store i32 %0, ptr %3, align 4
  %4 = load i32, ptr %3, align 4
  %5 = lshr i32 %4, 24
  %6 = and i32 %5, 15
  switch i32 %6, label %9 [
    i32 1, label %7
    i32 0, label %7
    i32 2, label %8
  ]

7:                                                ; preds = %1, %1
  store ptr @mat_BT709_Limited_8bit, ptr %2, align 8
  br label %11

8:                                                ; preds = %1
  store ptr @mat_BT709_Full_8bit, ptr %2, align 8
  br label %11

9:                                                ; preds = %1
  br label %10

10:                                               ; preds = %9
  store ptr null, ptr %2, align 8
  br label %11

11:                                               ; preds = %10, %8, %7
  %12 = load ptr, ptr %2, align 8
  ret ptr %12
}

; Function Attrs: nounwind uwtable
define internal ptr @SDL_GetBT601ConversionMatrix(i32 noundef %0) #0 {
  %2 = alloca ptr, align 8
  %3 = alloca i32, align 4
  store i32 %0, ptr %3, align 4
  %4 = load i32, ptr %3, align 4
  %5 = lshr i32 %4, 24
  %6 = and i32 %5, 15
  switch i32 %6, label %9 [
    i32 1, label %7
    i32 0, label %7
    i32 2, label %8
  ]

7:                                                ; preds = %1, %1
  store ptr @mat_BT601_Limited_8bit, ptr %2, align 8
  br label %11

8:                                                ; preds = %1
  store ptr @mat_BT601_Full_8bit, ptr %2, align 8
  br label %11

9:                                                ; preds = %1
  br label %10

10:                                               ; preds = %9
  store ptr null, ptr %2, align 8
  br label %11

11:                                               ; preds = %10, %8, %7
  %12 = load ptr, ptr %2, align 8
  ret ptr %12
}

; Function Attrs: nounwind uwtable
define hidden ptr @SDL_GetYCbCRtoRGBConversionMatrix(i32 noundef %0, i32 noundef %1, i32 noundef %2, i32 noundef %3) #0 {
  %5 = alloca ptr, align 8
  %6 = alloca i32, align 4
  %7 = alloca i32, align 4
  %8 = alloca i32, align 4
  %9 = alloca i32, align 4
  %10 = alloca i32, align 4
  %11 = alloca i32, align 4
  store i32 %0, ptr %6, align 4
  store i32 %1, ptr %7, align 4
  store i32 %2, ptr %8, align 4
  store i32 %3, ptr %9, align 4
  call void @llvm.lifetime.start.p0(i64 4, ptr %10) #7
  store i32 576, ptr %10, align 4
  %12 = load i32, ptr %6, align 4
  %13 = and i32 %12, 31
  switch i32 %13, label %39 [
    i32 6, label %14
    i32 5, label %14
    i32 1, label %17
    i32 9, label %20
    i32 2, label %23
  ]

14:                                               ; preds = %4, %4
  %15 = load i32, ptr %6, align 4
  %16 = call ptr @SDL_GetBT601ConversionMatrix(i32 noundef %15)
  store ptr %16, ptr %5, align 8
  store i32 1, ptr %11, align 4
  br label %41

17:                                               ; preds = %4
  %18 = load i32, ptr %6, align 4
  %19 = call ptr @SDL_GetBT709ConversionMatrix(i32 noundef %18)
  store ptr %19, ptr %5, align 8
  store i32 1, ptr %11, align 4
  br label %41

20:                                               ; preds = %4
  %21 = load i32, ptr %6, align 4
  %22 = call ptr @SDL_GetBT2020ConversionMatrix(i32 noundef %21)
  store ptr %22, ptr %5, align 8
  store i32 1, ptr %11, align 4
  br label %41

23:                                               ; preds = %4
  %24 = load i32, ptr %9, align 4
  switch i32 %24, label %37 [
    i32 8, label %25
    i32 10, label %34
    i32 16, label %34
  ]

25:                                               ; preds = %23
  %26 = load i32, ptr %8, align 4
  %27 = icmp sle i32 %26, 576
  br i1 %27, label %28, label %31

28:                                               ; preds = %25
  %29 = load i32, ptr %6, align 4
  %30 = call ptr @SDL_GetBT601ConversionMatrix(i32 noundef %29)
  store ptr %30, ptr %5, align 8
  store i32 1, ptr %11, align 4
  br label %41

31:                                               ; preds = %25
  %32 = load i32, ptr %6, align 4
  %33 = call ptr @SDL_GetBT709ConversionMatrix(i32 noundef %32)
  store ptr %33, ptr %5, align 8
  store i32 1, ptr %11, align 4
  br label %41

34:                                               ; preds = %23, %23
  %35 = load i32, ptr %6, align 4
  %36 = call ptr @SDL_GetBT2020ConversionMatrix(i32 noundef %35)
  store ptr %36, ptr %5, align 8
  store i32 1, ptr %11, align 4
  br label %41

37:                                               ; preds = %23
  br label %38

38:                                               ; preds = %37
  br label %40

39:                                               ; preds = %4
  br label %40

40:                                               ; preds = %39, %38
  store ptr null, ptr %5, align 8
  store i32 1, ptr %11, align 4
  br label %41

41:                                               ; preds = %40, %34, %31, %28, %20, %17, %14
  call void @llvm.lifetime.end.p0(i64 4, ptr %10) #7
  %42 = load ptr, ptr %5, align 8
  ret ptr %42
}